; Function Attrs: mustprogress uwtable
define internal void @_ZN7rocksdb12_GLOBAL__N_128CleanupGetMergeOperandsStateEPvS1_(ptr noundef %arg1, ptr nocapture readnone %0) #5 personality ptr @__gxx_personality_v0 {
delete.notnull:
  %sv_handle = getelementptr inbounds i8, ptr %arg1, i64 88
  %1 = load ptr, ptr %sv_handle, align 8
  tail call void @_ZN7rocksdb12_GLOBAL__N_125CleanupSuperVersionHandleEPvS1_(ptr noundef %1, ptr poison)
  %pinned_iters_mgr.i = getelementptr inbounds i8, ptr %arg1, i64 24
  %pinning_enabled.i.i = getelementptr inbounds i8, ptr %arg1, i64 56
  %2 = load i8, ptr %pinning_enabled.i.i, align 8
  %3 = and i8 %2, 1
  %tobool.not.i.i = icmp eq i8 %3, 0
  br i1 %tobool.not.i.i, label %if.end.i.i, label %if.then.i.i

if.then.i.i:                                      ; preds = %delete.notnull
  invoke void @_ZN7rocksdb22PinnedIteratorsManager17ReleasePinnedDataEv(ptr noundef nonnull align 8 dereferenceable(64) %pinned_iters_mgr.i)
          to label %if.end.i.i unwind label %terminate.lpad.i.i

if.end.i.i:                                       ; preds = %if.then.i.i, %delete.notnull
  %pinned_ptrs_.i.i = getelementptr inbounds i8, ptr %arg1, i64 64
  %4 = load ptr, ptr %pinned_ptrs_.i.i, align 8
  %tobool.not.i.i.i.i.i = icmp eq ptr %4, null
  br i1 %tobool.not.i.i.i.i.i, label %delete.end, label %if.then.i.i.i.i.i

if.then.i.i.i.i.i:                                ; preds = %if.end.i.i
  tail call void @_ZdlPv(ptr noundef nonnull %4) #33
  br label %delete.end

terminate.lpad.i.i:                               ; preds = %if.then.i.i
  %5 = landingpad { ptr, i32 }
          catch ptr null
  %6 = extractvalue { ptr, i32 } %5, 0
  tail call void @__clang_call_terminate(ptr %6) #36
  unreachable

delete.end:                                       ; preds = %if.then.i.i.i.i.i, %if.end.i.i
  tail call void @_ZN7rocksdb9CleanableD2Ev(ptr noundef nonnull align 8 dereferenceable(32) %pinned_iters_mgr.i) #34
  tail call void @_ZN7rocksdb12MergeContextD2Ev(ptr noundef nonnull align 8 dereferenceable(17) %arg1) #34
  tail call void @_ZdlPv(ptr noundef nonnull %arg1) #33
  ret void
}